; Function Attrs: nounwind uwtable
define dso_local noundef i64 @pg_replication_origin_xact_setup(ptr noundef readonly captures(none) %0) local_unnamed_addr #0 {
  %2 = getelementptr inbounds nuw i8, ptr %0, i64 32
  %3 = load i64, ptr %2, align 8
  tail call fastcc void @replorigin_check_prerequisites(i1 noundef zeroext true, i1 noundef zeroext false)
  %4 = load ptr, ptr @session_replication_state, align 8
  %5 = icmp eq ptr %4, null
  br i1 %5, label %6, label %10

6:                                                ; preds = %1
  %7 = tail call zeroext i1 @errstart_cold(i32 noundef 21, ptr noundef null) #11
  tail call void @llvm.assume(i1 %7)
  %8 = tail call i32 @errcode(i32 noundef 325) #10
  %9 = tail call i32 (ptr, ...) @errmsg(ptr noundef nonnull @.str.26) #10
  tail call void @errfinish(ptr noundef nonnull @.str.1, i32 noundef 1439, ptr noundef nonnull @__func__.pg_replication_origin_xact_setup) #10
  unreachable

10:                                               ; preds = %1
  store i64 %3, ptr @replorigin_session_origin_lsn, align 8
  %11 = getelementptr inbounds nuw i8, ptr %0, i64 48
  %12 = load i64, ptr %11, align 8
  store i64 %12, ptr @replorigin_session_origin_timestamp, align 8
  ret i64 0
}